target datalayout = "e-m:e-p270:32:32-p271:32:32-p272:64:64-i64:64-i128:128-f80:128-n8:16:32:64-S128"
target triple = "x86_64-pc-linux-gnu"

%"struct.icu_77::FormattedStringBuilder::Field" = type { i8 }
%"class.icu_77::SimpleFormatter" = type { [8 x i8], %"class.icu_77::UnicodeString" }
%"class.icu_77::UnicodeString" = type { %"class.icu_77::Replaceable", %"union.icu_77::UnicodeString::StackBufferOrFields" }
%"class.icu_77::Replaceable" = type { %"class.icu_77::UObject" }
%"class.icu_77::UObject" = type { ptr }
%"union.icu_77::UnicodeString::StackBufferOrFields" = type { %struct.anon.0, [32 x i8] }
%struct.anon.0 = type { i16, i32, i32, ptr }
%"class.icu_77::MeasureUnit" = type <{ %"class.icu_77::UObject", ptr, i16, i8, [5 x i8] }>
%"class.icu_77::number::Precision" = type <{ i32, [4 x i8], %"union.icu_77::number::Precision::PrecisionUnion", i32, [4 x i8] }>
%"union.icu_77::number::Precision::PrecisionUnion" = type { %"struct.icu_77::number::Precision::PrecisionUnion::IncrementSettings" }
%"struct.icu_77::number::Precision::PrecisionUnion::IncrementSettings" = type { i64, i16, i16 }
%"class.icu_77::number::impl::Grouper" = type { i16, i16, i16, i32 }
%"class.icu_77::number::impl::Padder" = type { i32, %union.anon }
%union.anon = type { %struct.anon.1 }
%struct.anon.1 = type { i32, i32 }
%"class.icu_77::number::IntegerWidth" = type <{ %union.anon.2, i8, [3 x i8] }>
%union.anon.2 = type { i32, [4 x i8] }
%"class.icu_77::number::Scale" = type <{ i32, [4 x i8], ptr, i32, [4 x i8] }>
%"class.icu_77::StandardPluralRanges" = type { %"class.icu_77::MaybeStackArray.28", i32, [4 x i8] }
%"class.icu_77::MaybeStackArray.28" = type <{ ptr, i32, i8, [3 x i8], [3 x %"struct.icu_77::StandardPluralRanges::StandardPluralRangeTriple"], [4 x i8] }>
%"struct.icu_77::StandardPluralRanges::StandardPluralRangeTriple" = type { i32, i32, i32 }
%"class.icu_77::number::impl::NumberRangeFormatterImpl" = type { [8 x i8], %"class.icu_77::number::impl::NumberFormatterImpl", %"class.icu_77::number::impl::NumberFormatterImpl", i8, i32, i32, %"class.icu_77::SimpleFormatter", %"class.icu_77::number::impl::NumberFormatterImpl", %"class.icu_77::StandardPluralRanges" }
%"class.icu_77::number::impl::NumberFormatterImpl" = type { ptr, %"struct.icu_77::number::impl::MicroProps", %"class.icu_77::LocalPointer", %"class.icu_77::LocalPointer.6", %"class.icu_77::LocalPointer.8", %"class.icu_77::LocalPointer.10", %"class.icu_77::LocalPointer.12", %"class.icu_77::LocalPointer.14", %"class.icu_77::LocalPointer.16", %"class.icu_77::LocalPointer.18", %"class.icu_77::LocalPointer.20", %"class.icu_77::LocalPointer.22", %"class.icu_77::LocalPointer.24", %"class.icu_77::LocalPointer.26" }
%"struct.icu_77::number::impl::MicroProps" = type <{ %"class.icu_77::number::impl::MicroPropsGenerator", %"struct.icu_77::number::impl::SimpleMicroProps", %"class.icu_77::number::impl::RoundingImpl", %"class.icu_77::number::impl::Padder", %"class.icu_77::number::IntegerWidth", i32, [9 x i8], [3 x i8], ptr, ptr, ptr, ptr, %struct.anon.4, %"class.icu_77::MeasureUnit", %"class.icu_77::number::impl::IntMeasures", i32, i32, i8, [7 x i8] }>
%"class.icu_77::number::impl::MicroPropsGenerator" = type { ptr }
%"struct.icu_77::number::impl::SimpleMicroProps" = type { [4 x i8], %"class.icu_77::number::impl::Grouper", i8, i32, %"class.icu_77::UnicodeString", ptr }
%"class.icu_77::number::impl::RoundingImpl" = type <{ %"class.icu_77::number::Precision", i32, i8, [3 x i8] }>
%struct.anon.4 = type { %"class.icu_77::number::impl::ScientificModifier", %"class.icu_77::number::impl::EmptyModifier", %"class.icu_77::number::impl::EmptyModifier", %"class.icu_77::number::impl::MultiplierFormatHandler", %"class.icu_77::number::impl::SimpleModifier" }
%"class.icu_77::number::impl::ScientificModifier" = type { %"class.icu_77::number::impl::Modifier", i32, ptr }
%"class.icu_77::number::impl::Modifier" = type { ptr }
%"class.icu_77::number::impl::EmptyModifier" = type <{ %"class.icu_77::number::impl::Modifier", i8, [7 x i8] }>
%"class.icu_77::number::impl::MultiplierFormatHandler" = type { %"class.icu_77::number::impl::MicroPropsGenerator", %"class.icu_77::number::Scale", ptr }
%"class.icu_77::number::impl::SimpleModifier" = type { %"class.icu_77::number::impl::Modifier", %"class.icu_77::UnicodeString", %"struct.icu_77::FormattedStringBuilder::Field", i8, i32, i32, i32, %"struct.icu_77::number::impl::Modifier::Parameters" }
%"struct.icu_77::number::impl::Modifier::Parameters" = type { ptr, i32, i32 }
%"class.icu_77::number::impl::IntMeasures" = type <{ %"class.icu_77::MaybeStackArray.5", i32, [4 x i8] }>
%"class.icu_77::MaybeStackArray.5" = type { ptr, i32, i8, [2 x i64] }
%"class.icu_77::LocalPointer" = type { %"class.icu_77::LocalPointerBase" }
%"class.icu_77::LocalPointerBase" = type { ptr }
%"class.icu_77::LocalPointer.6" = type { %"class.icu_77::LocalPointerBase.7" }
%"class.icu_77::LocalPointerBase.7" = type { ptr }
%"class.icu_77::LocalPointer.8" = type { %"class.icu_77::LocalPointerBase.9" }
%"class.icu_77::LocalPointerBase.9" = type { ptr }
%"class.icu_77::LocalPointer.10" = type { %"class.icu_77::LocalPointerBase.11" }
%"class.icu_77::LocalPointerBase.11" = type { ptr }
%"class.icu_77::LocalPointer.12" = type { %"class.icu_77::LocalPointerBase.13" }
%"class.icu_77::LocalPointerBase.13" = type { ptr }
%"class.icu_77::LocalPointer.14" = type { %"class.icu_77::LocalPointerBase.15" }
%"class.icu_77::LocalPointerBase.15" = type { ptr }
%"class.icu_77::LocalPointer.16" = type { %"class.icu_77::LocalPointerBase.17" }
%"class.icu_77::LocalPointerBase.17" = type { ptr }
%"class.icu_77::LocalPointer.18" = type { %"class.icu_77::LocalPointerBase.19" }
%"class.icu_77::LocalPointerBase.19" = type { ptr }
%"class.icu_77::LocalPointer.20" = type { %"class.icu_77::LocalPointerBase.21" }
%"class.icu_77::LocalPointerBase.21" = type { ptr }
%"class.icu_77::LocalPointer.22" = type { %"class.icu_77::LocalPointerBase.23" }
%"class.icu_77::LocalPointerBase.23" = type { ptr }
%"class.icu_77::LocalPointer.24" = type { %"class.icu_77::LocalPointerBase.25" }
%"class.icu_77::LocalPointerBase.25" = type { ptr }
%"class.icu_77::LocalPointer.26" = type { %"class.icu_77::LocalPointerBase.27" }
%"class.icu_77::LocalPointerBase.27" = type { ptr }

; Function Attrs: mustprogress uwtable
define noundef nonnull align 8 dereferenceable(8) ptr @_ZNK6icu_776number4impl24NumberRangeFormatterImpl22resolveModifierPluralsERKNS1_8ModifierES5_(ptr noundef nonnull align 8 dereferenceable(1960) %0, ptr noundef nonnull align 8 dereferenceable(8) %1, ptr noundef nonnull align 8 dereferenceable(8) %2) #1 align 2 {
  %4 = alloca ptr, align 8
  %5 = alloca ptr, align 8
  %6 = alloca ptr, align 8
  %7 = alloca ptr, align 8
  %8 = alloca %"struct.icu_77::number::impl::Modifier::Parameters", align 8
  %9 = alloca i32, align 4
  %10 = alloca i32, align 4
  %11 = alloca i32, align 4
  %12 = alloca i32, align 4
  %13 = alloca ptr, align 8
  store ptr %0, ptr %5, align 8, !tbaa !23
  store ptr %1, ptr %6, align 8, !tbaa !170
  store ptr %2, ptr %7, align 8, !tbaa !170
  %14 = load ptr, ptr %5, align 8
  call void @llvm.lifetime.start.p0(i64 16, ptr %8) #14
  call void @_ZN6icu_776number4impl8Modifier10ParametersC1Ev(ptr noundef nonnull align 8 dereferenceable(16) %8)
  %15 = load ptr, ptr %6, align 8, !tbaa !170
  %16 = load ptr, ptr %15, align 8, !tbaa !165
  %17 = getelementptr inbounds ptr, ptr %16, i64 7
  %18 = load ptr, ptr %17, align 8
  call void %18(ptr noundef nonnull align 8 dereferenceable(8) %15, ptr noundef nonnull align 8 dereferenceable(16) %8)
  %19 = getelementptr inbounds nuw %"struct.icu_77::number::impl::Modifier::Parameters", ptr %8, i32 0, i32 0
  %20 = load ptr, ptr %19, align 8, !tbaa !185
  %21 = icmp eq ptr %20, null
  br i1 %21, label %22, label %24

22:                                               ; preds = %3
  %23 = load ptr, ptr %6, align 8, !tbaa !170
  store ptr %23, ptr %4, align 8
  store i32 1, ptr %9, align 4
  br label %54

24:                                               ; preds = %3
  call void @llvm.lifetime.start.p0(i64 4, ptr %10) #14
  %25 = getelementptr inbounds nuw %"struct.icu_77::number::impl::Modifier::Parameters", ptr %8, i32 0, i32 2
  %26 = load i32, ptr %25, align 4, !tbaa !186
  store i32 %26, ptr %10, align 4, !tbaa !187
  %27 = load ptr, ptr %7, align 8, !tbaa !170
  %28 = load ptr, ptr %27, align 8, !tbaa !165
  %29 = getelementptr inbounds ptr, ptr %28, i64 7
  %30 = load ptr, ptr %29, align 8
  call void %30(ptr noundef nonnull align 8 dereferenceable(8) %27, ptr noundef nonnull align 8 dereferenceable(16) %8)
  %31 = getelementptr inbounds nuw %"struct.icu_77::number::impl::Modifier::Parameters", ptr %8, i32 0, i32 0
  %32 = load ptr, ptr %31, align 8, !tbaa !185
  %33 = icmp eq ptr %32, null
  br i1 %33, label %34, label %36

34:                                               ; preds = %24
  %35 = load ptr, ptr %6, align 8, !tbaa !170
  store ptr %35, ptr %4, align 8
  store i32 1, ptr %9, align 4
  br label %53

36:                                               ; preds = %24
  call void @llvm.lifetime.start.p0(i64 4, ptr %11) #14
  %37 = getelementptr inbounds nuw %"struct.icu_77::number::impl::Modifier::Parameters", ptr %8, i32 0, i32 2
  %38 = load i32, ptr %37, align 4, !tbaa !186
  store i32 %38, ptr %11, align 4, !tbaa !187
  call void @llvm.lifetime.start.p0(i64 4, ptr %12) #14
  %39 = getelementptr inbounds nuw %"class.icu_77::number::impl::NumberRangeFormatterImpl", ptr %14, i32 0, i32 8
  %40 = load i32, ptr %10, align 4, !tbaa !187
  %41 = load i32, ptr %11, align 4, !tbaa !187
  %42 = call noundef i32 @_ZNK6icu_7720StandardPluralRanges7resolveENS_14StandardPlural4FormES2_(ptr noundef nonnull align 8 dereferenceable(60) %39, i32 noundef %40, i32 noundef %41)
  store i32 %42, ptr %12, align 4, !tbaa !187
  call void @llvm.lifetime.start.p0(i64 8, ptr %13) #14
  %43 = getelementptr inbounds nuw %"struct.icu_77::number::impl::Modifier::Parameters", ptr %8, i32 0, i32 0
  %44 = load ptr, ptr %43, align 8, !tbaa !185
  %45 = getelementptr inbounds nuw %"struct.icu_77::number::impl::Modifier::Parameters", ptr %8, i32 0, i32 1
  %46 = load i32, ptr %45, align 8, !tbaa !188
  %47 = load i32, ptr %12, align 4, !tbaa !187
  %48 = load ptr, ptr %44, align 8, !tbaa !165
  %49 = getelementptr inbounds ptr, ptr %48, i64 2
  %50 = load ptr, ptr %49, align 8
  %51 = call noundef ptr %50(ptr noundef nonnull align 8 dereferenceable(8) %44, i32 noundef %46, i32 noundef %47)
  store ptr %51, ptr %13, align 8, !tbaa !170
  %52 = load ptr, ptr %13, align 8, !tbaa !170
  store ptr %52, ptr %4, align 8
  store i32 1, ptr %9, align 4
  call void @llvm.lifetime.end.p0(i64 8, ptr %13) #14
  call void @llvm.lifetime.end.p0(i64 4, ptr %12) #14
  call void @llvm.lifetime.end.p0(i64 4, ptr %11) #14
  br label %53

53:                                               ; preds = %36, %34
  call void @llvm.lifetime.end.p0(i64 4, ptr %10) #14
  br label %54

54:                                               ; preds = %53, %22
  call void @llvm.lifetime.end.p0(i64 16, ptr %8) #14
  %55 = load ptr, ptr %4, align 8
  ret ptr %55
}