; Function Attrs: mustprogress uwtable
define noundef nonnull align 8 dereferenceable(8) ptr @_ZNK6icu_776number4impl24NumberRangeFormatterImpl22resolveModifierPluralsERKNS1_8ModifierES5_(ptr noundef nonnull align 8 dereferenceable(1960) %0, ptr noundef nonnull align 8 dereferenceable(8) %1, ptr noundef nonnull align 8 dereferenceable(8) %2) local_unnamed_addr #1 align 2 {
  %4 = alloca %"struct.icu_77::number::impl::Modifier::Parameters", align 8
  call void @llvm.lifetime.start.p0(i64 16, ptr nonnull %4) #16
  call void @_ZN6icu_776number4impl8Modifier10ParametersC1Ev(ptr noundef nonnull align 8 dereferenceable(16) %4)
  %5 = load ptr, ptr %1, align 8, !tbaa !127
  %6 = getelementptr inbounds nuw i8, ptr %5, i64 56
  %7 = load ptr, ptr %6, align 8
  call void %7(ptr noundef nonnull align 8 dereferenceable(8) %1, ptr noundef nonnull align 8 dereferenceable(16) %4)
  %8 = load ptr, ptr %4, align 8, !tbaa !191
  %9 = icmp eq ptr %8, null
  br i1 %9, label %29, label %10

10:                                               ; preds = %3
  %11 = getelementptr inbounds nuw i8, ptr %4, i64 12
  %12 = load i32, ptr %11, align 4, !tbaa !192
  %13 = load ptr, ptr %2, align 8, !tbaa !127
  %14 = getelementptr inbounds nuw i8, ptr %13, i64 56
  %15 = load ptr, ptr %14, align 8
  call void %15(ptr noundef nonnull align 8 dereferenceable(8) %2, ptr noundef nonnull align 8 dereferenceable(16) %4)
  %16 = load ptr, ptr %4, align 8, !tbaa !191
  %17 = icmp eq ptr %16, null
  br i1 %17, label %29, label %18

18:                                               ; preds = %10
  %19 = load i32, ptr %11, align 4, !tbaa !192
  %20 = getelementptr inbounds nuw i8, ptr %0, i64 1896
  %21 = call noundef i32 @_ZNK6icu_7720StandardPluralRanges7resolveENS_14StandardPlural4FormES2_(ptr noundef nonnull align 8 dereferenceable(60) %20, i32 noundef %12, i32 noundef %19)
  %22 = load ptr, ptr %4, align 8, !tbaa !191
  %23 = getelementptr inbounds nuw i8, ptr %4, i64 8
  %24 = load i32, ptr %23, align 8, !tbaa !193
  %25 = load ptr, ptr %22, align 8, !tbaa !127
  %26 = getelementptr inbounds nuw i8, ptr %25, i64 16
  %27 = load ptr, ptr %26, align 8
  %28 = call noundef ptr %27(ptr noundef nonnull align 8 dereferenceable(8) %22, i32 noundef %24, i32 noundef %21)
  br label %29

29:                                               ; preds = %18, %10, %3
  %.0 = phi ptr [ %1, %3 ], [ %28, %18 ], [ %1, %10 ]
  call void @llvm.lifetime.end.p0(i64 16, ptr nonnull %4) #16
  ret ptr %.0
}